target datalayout = "e-m:e-p270:32:32-p271:32:32-p272:64:64-i64:64-i128:128-f80:128-n8:16:32:64-S128"
target triple = "x86_64-unknown-linux-gnu"

%"class.(anonymous namespace)::Demangler" = type { ptr, i8, %"class.llvh::ms_demangle::ArenaAllocator", %"struct.(anonymous namespace)::BackrefContext" }
%"class.llvh::ms_demangle::ArenaAllocator" = type { ptr }
%"struct.(anonymous namespace)::BackrefContext" = type { [10 x ptr], i64, [10 x ptr], i64 }
%class.StringView = type { ptr, ptr }
%"struct.std::pair" = type <{ i64, i8, [7 x i8] }>

; Function Attrs: mustprogress nounwind uwtable
define linkonce_odr hidden void @_ZN10StringViewC2EPKcS1_(ptr noundef nonnull align 8 dereferenceable(16) %this, ptr noundef %First_, ptr noundef %Last_) unnamed_addr #0 comdat align 2 {
entry:
  %this.addr = alloca ptr, align 8
  %First_.addr = alloca ptr, align 8
  %Last_.addr = alloca ptr, align 8
  store ptr %this, ptr %this.addr, align 8
  store ptr %First_, ptr %First_.addr, align 8
  store ptr %Last_, ptr %Last_.addr, align 8
  %this1 = load ptr, ptr %this.addr, align 8
  %First = getelementptr inbounds %class.StringView, ptr %this1, i32 0, i32 0
  %0 = load ptr, ptr %First_.addr, align 8
  store ptr %0, ptr %First, align 8
  %Last = getelementptr inbounds %class.StringView, ptr %this1, i32 0, i32 1
  %1 = load ptr, ptr %Last_.addr, align 8
  store ptr %1, ptr %Last, align 8
  ret void
}

; Function Attrs: mustprogress nounwind uwtable
define linkonce_odr hidden noundef ptr @_ZNK10StringView5beginEv(ptr noundef nonnull align 8 dereferenceable(16) %this) #0 comdat align 2 {
entry:
  %this.addr = alloca ptr, align 8
  store ptr %this, ptr %this.addr, align 8
  %this1 = load ptr, ptr %this.addr, align 8
  %First = getelementptr inbounds %class.StringView, ptr %this1, i32 0, i32 0
  %0 = load ptr, ptr %First, align 8
  ret ptr %0
}

; Function Attrs: mustprogress nounwind uwtable
define linkonce_odr hidden noundef signext i8 @_ZNK10StringView5frontEv(ptr noundef nonnull align 8 dereferenceable(16) %this) #0 comdat align 2 {
entry:
  %this.addr = alloca ptr, align 8
  store ptr %this, ptr %this.addr, align 8
  %this1 = load ptr, ptr %this.addr, align 8
  %call = call noundef ptr @_ZNK10StringView5beginEv(ptr noundef nonnull align 8 dereferenceable(16) %this1)
  %0 = load i8, ptr %call, align 1
  ret i8 %0
}

; Function Attrs: mustprogress nounwind uwtable
define linkonce_odr hidden noundef zeroext i1 @_ZNK10StringView5emptyEv(ptr noundef nonnull align 8 dereferenceable(16) %this) #0 comdat align 2 {
entry:
  %this.addr = alloca ptr, align 8
  store ptr %this, ptr %this.addr, align 8
  %this1 = load ptr, ptr %this.addr, align 8
  %First = getelementptr inbounds %class.StringView, ptr %this1, i32 0, i32 0
  %0 = load ptr, ptr %First, align 8
  %Last = getelementptr inbounds %class.StringView, ptr %this1, i32 0, i32 1
  %1 = load ptr, ptr %Last, align 8
  %cmp = icmp eq ptr %0, %1
  ret i1 %cmp
}

; Function Attrs: mustprogress nounwind uwtable
define linkonce_odr hidden noundef zeroext i1 @_ZNK10StringView10startsWithEc(ptr noundef nonnull align 8 dereferenceable(16) %this, i8 noundef signext %C) #0 comdat align 2 {
entry:
  %this.addr = alloca ptr, align 8
  %C.addr = alloca i8, align 1
  store ptr %this, ptr %this.addr, align 8
  store i8 %C, ptr %C.addr, align 1
  %this1 = load ptr, ptr %this.addr, align 8
  %call = call noundef zeroext i1 @_ZNK10StringView5emptyEv(ptr noundef nonnull align 8 dereferenceable(16) %this1)
  br i1 %call, label %land.end, label %land.rhs

land.rhs:                                         ; preds = %entry
  %call2 = call noundef ptr @_ZNK10StringView5beginEv(ptr noundef nonnull align 8 dereferenceable(16) %this1)
  %0 = load i8, ptr %call2, align 1
  %conv = sext i8 %0 to i32
  %1 = load i8, ptr %C.addr, align 1
  %conv3 = sext i8 %1 to i32
  %cmp = icmp eq i32 %conv, %conv3
  br label %land.end

land.end:                                         ; preds = %land.rhs, %entry
  %2 = phi i1 [ false, %entry ], [ %cmp, %land.rhs ]
  ret i1 %2
}

; Function Attrs: mustprogress nounwind uwtable
define linkonce_odr void @_ZNSt4pairImbEC2IybTnNSt9enable_ifIXaaclsr5_PCCPE22_MoveConstructiblePairIT_T0_EEclsr5_PCCPE30_ImplicitlyMoveConvertiblePairIS3_S4_EEEbE4typeELb1EEEOS3_OS4_(ptr noundef nonnull align 8 dereferenceable(9) %this, ptr noundef nonnull align 8 dereferenceable(8) %__x, ptr noundef nonnull align 1 dereferenceable(1) %__y) unnamed_addr #0 comdat align 2 {
entry:
  %this.addr = alloca ptr, align 8
  %__x.addr = alloca ptr, align 8
  %__y.addr = alloca ptr, align 8
  store ptr %this, ptr %this.addr, align 8
  store ptr %__x, ptr %__x.addr, align 8
  store ptr %__y, ptr %__y.addr, align 8
  %this1 = load ptr, ptr %this.addr, align 8
  %first = getelementptr inbounds %"struct.std::pair", ptr %this1, i32 0, i32 0
  %0 = load ptr, ptr %__x.addr, align 8
  %1 = load i64, ptr %0, align 8
  store i64 %1, ptr %first, align 8
  %second = getelementptr inbounds %"struct.std::pair", ptr %this1, i32 0, i32 1
  %2 = load ptr, ptr %__y.addr, align 8
  %3 = load i8, ptr %2, align 1
  %tobool = trunc i8 %3 to i1
  %frombool = zext i1 %tobool to i8
  store i8 %frombool, ptr %second, align 8
  ret void
}

; Function Attrs: mustprogress nounwind uwtable
define linkonce_odr hidden noundef i64 @_ZNK10StringView4sizeEv(ptr noundef nonnull align 8 dereferenceable(16) %this) #0 comdat align 2 {
entry:
  %this.addr = alloca ptr, align 8
  store ptr %this, ptr %this.addr, align 8
  %this1 = load ptr, ptr %this.addr, align 8
  %Last = getelementptr inbounds %class.StringView, ptr %this1, i32 0, i32 1
  %0 = load ptr, ptr %Last, align 8
  %First = getelementptr inbounds %class.StringView, ptr %this1, i32 0, i32 0
  %1 = load ptr, ptr %First, align 8
  %sub.ptr.lhs.cast = ptrtoint ptr %0 to i64
  %sub.ptr.rhs.cast = ptrtoint ptr %1 to i64
  %sub.ptr.sub = sub i64 %sub.ptr.lhs.cast, %sub.ptr.rhs.cast
  ret i64 %sub.ptr.sub
}

; Function Attrs: mustprogress nounwind uwtable
define linkonce_odr void @_ZNSt4pairImbEC2IRmRbTnNSt9enable_ifIXaaclsr5_PCCPE22_MoveConstructiblePairIT_T0_EEclsr5_PCCPE30_ImplicitlyMoveConvertiblePairIS5_S6_EEEbE4typeELb1EEEOS5_OS6_(ptr noundef nonnull align 8 dereferenceable(9) %this, ptr noundef nonnull align 8 dereferenceable(8) %__x, ptr noundef nonnull align 1 dereferenceable(1) %__y) unnamed_addr #0 comdat align 2 {
entry:
  %this.addr = alloca ptr, align 8
  %__x.addr = alloca ptr, align 8
  %__y.addr = alloca ptr, align 8
  store ptr %this, ptr %this.addr, align 8
  store ptr %__x, ptr %__x.addr, align 8
  store ptr %__y, ptr %__y.addr, align 8
  %this1 = load ptr, ptr %this.addr, align 8
  %first = getelementptr inbounds %"struct.std::pair", ptr %this1, i32 0, i32 0
  %0 = load ptr, ptr %__x.addr, align 8
  %1 = load i64, ptr %0, align 8
  store i64 %1, ptr %first, align 8
  %second = getelementptr inbounds %"struct.std::pair", ptr %this1, i32 0, i32 1
  %2 = load ptr, ptr %__y.addr, align 8
  %3 = load i8, ptr %2, align 1
  %tobool = trunc i8 %3 to i1
  %frombool = zext i1 %tobool to i8
  store i8 %frombool, ptr %second, align 8
  ret void
}

; Function Attrs: mustprogress nounwind uwtable
define linkonce_odr hidden { ptr, ptr } @_ZNK10StringView9dropFrontEm(ptr noundef nonnull align 8 dereferenceable(16) %this, i64 noundef %N) #0 comdat align 2 {
entry:
  %retval = alloca %class.StringView, align 8
  %this.addr = alloca ptr, align 8
  %N.addr = alloca i64, align 8
  store ptr %this, ptr %this.addr, align 8
  store i64 %N, ptr %N.addr, align 8
  %this1 = load ptr, ptr %this.addr, align 8
  %0 = load i64, ptr %N.addr, align 8
  %call = call noundef i64 @_ZNK10StringView4sizeEv(ptr noundef nonnull align 8 dereferenceable(16) %this1)
  %cmp = icmp uge i64 %0, %call
  br i1 %cmp, label %if.then, label %if.end

if.then:                                          ; preds = %entry
  %call2 = call noundef i64 @_ZNK10StringView4sizeEv(ptr noundef nonnull align 8 dereferenceable(16) %this1)
  store i64 %call2, ptr %N.addr, align 8
  br label %if.end

if.end:                                           ; preds = %if.then, %entry
  %First = getelementptr inbounds %class.StringView, ptr %this1, i32 0, i32 0
  %1 = load ptr, ptr %First, align 8
  %2 = load i64, ptr %N.addr, align 8
  %add.ptr = getelementptr inbounds i8, ptr %1, i64 %2
  %Last = getelementptr inbounds %class.StringView, ptr %this1, i32 0, i32 1
  %3 = load ptr, ptr %Last, align 8
  call void @_ZN10StringViewC2EPKcS1_(ptr noundef nonnull align 8 dereferenceable(16) %retval, ptr noundef %add.ptr, ptr noundef %3)
  %4 = load { ptr, ptr }, ptr %retval, align 8
  ret { ptr, ptr } %4
}

; Function Attrs: mustprogress nounwind uwtable
define linkonce_odr hidden noundef nonnull align 1 dereferenceable(1) ptr @_ZNK10StringViewixEm(ptr noundef nonnull align 8 dereferenceable(16) %this, i64 noundef %Idx) #0 comdat align 2 {
entry:
  %this.addr = alloca ptr, align 8
  %Idx.addr = alloca i64, align 8
  store ptr %this, ptr %this.addr, align 8
  store i64 %Idx, ptr %Idx.addr, align 8
  %this1 = load ptr, ptr %this.addr, align 8
  %call = call noundef ptr @_ZNK10StringView5beginEv(ptr noundef nonnull align 8 dereferenceable(16) %this1)
  %0 = load i64, ptr %Idx.addr, align 8
  %add.ptr = getelementptr inbounds i8, ptr %call, i64 %0
  ret ptr %add.ptr
}

; Function Attrs: mustprogress nounwind uwtable
define internal noundef zeroext i1 @_ZL15startsWithDigit10StringView(ptr %S.coerce0, ptr %S.coerce1) #0 {
entry:
  %S = alloca %class.StringView, align 8
  %0 = getelementptr inbounds { ptr, ptr }, ptr %S, i32 0, i32 0
  store ptr %S.coerce0, ptr %0, align 8
  %1 = getelementptr inbounds { ptr, ptr }, ptr %S, i32 0, i32 1
  store ptr %S.coerce1, ptr %1, align 8
  %call = call noundef zeroext i1 @_ZNK10StringView5emptyEv(ptr noundef nonnull align 8 dereferenceable(16) %S)
  br i1 %call, label %land.end, label %land.rhs

land.rhs:                                         ; preds = %entry
  %call1 = call noundef signext i8 @_ZNK10StringView5frontEv(ptr noundef nonnull align 8 dereferenceable(16) %S)
  %conv = sext i8 %call1 to i32
  %call2 = call i32 @isdigit(i32 noundef %conv) #14
  %tobool = icmp ne i32 %call2, 0
  br label %land.end

land.end:                                         ; preds = %land.rhs, %entry
  %2 = phi i1 [ false, %entry ], [ %tobool, %land.rhs ]
  ret i1 %2
}

; Function Attrs: mustprogress nounwind uwtable
define linkonce_odr hidden noundef zeroext i1 @_ZN10StringView12consumeFrontEc(ptr noundef nonnull align 8 dereferenceable(16) %this, i8 noundef signext %C) #0 comdat align 2 {
entry:
  %retval = alloca i1, align 1
  %this.addr = alloca ptr, align 8
  %C.addr = alloca i8, align 1
  %ref.tmp = alloca %class.StringView, align 8
  store ptr %this, ptr %this.addr, align 8
  store i8 %C, ptr %C.addr, align 1
  %this1 = load ptr, ptr %this.addr, align 8
  %0 = load i8, ptr %C.addr, align 1
  %call = call noundef zeroext i1 @_ZNK10StringView10startsWithEc(ptr noundef nonnull align 8 dereferenceable(16) %this1, i8 noundef signext %0)
  br i1 %call, label %if.end, label %if.then

if.then:                                          ; preds = %entry
  store i1 false, ptr %retval, align 1
  br label %return

if.end:                                           ; preds = %entry
  %call2 = call { ptr, ptr } @_ZNK10StringView9dropFrontEm(ptr noundef nonnull align 8 dereferenceable(16) %this1, i64 noundef 1)
  %1 = getelementptr inbounds { ptr, ptr }, ptr %ref.tmp, i32 0, i32 0
  %2 = extractvalue { ptr, ptr } %call2, 0
  store ptr %2, ptr %1, align 8
  %3 = getelementptr inbounds { ptr, ptr }, ptr %ref.tmp, i32 0, i32 1
  %4 = extractvalue { ptr, ptr } %call2, 1
  store ptr %4, ptr %3, align 8
  call void @llvm.memcpy.p0.p0.i64(ptr align 8 %this1, ptr align 8 %ref.tmp, i64 16, i1 false)
  store i1 true, ptr %retval, align 1
  br label %return

return:                                           ; preds = %if.end, %if.then
  %5 = load i1, ptr %retval, align 1
  ret i1 %5
}

; Function Attrs: mustprogress nounwind uwtable
define internal { i64, i8 } @_ZN12_GLOBAL__N_19Demangler14demangleNumberER10StringView(ptr noundef nonnull align 8 dereferenceable(200) %this, ptr noundef nonnull align 8 dereferenceable(16) %MangledName) #0 align 2 {
entry:
  %retval = alloca %"struct.std::pair", align 8
  %this.addr = alloca ptr, align 8
  %MangledName.addr = alloca ptr, align 8
  %IsNegative = alloca i8, align 1
  %agg.tmp = alloca %class.StringView, align 8
  %Ret = alloca i64, align 8
  %ref.tmp = alloca %class.StringView, align 8
  %Ret6 = alloca i64, align 8
  %i = alloca i64, align 8
  %C = alloca i8, align 1
  %ref.tmp12 = alloca %class.StringView, align 8
  %ref.tmp26 = alloca i64, align 8
  %ref.tmp27 = alloca i8, align 1
  store ptr %this, ptr %this.addr, align 8
  store ptr %MangledName, ptr %MangledName.addr, align 8
  %this1 = load ptr, ptr %this.addr, align 8
  %0 = load ptr, ptr %MangledName.addr, align 8
  %call = call noundef zeroext i1 @_ZN10StringView12consumeFrontEc(ptr noundef nonnull align 8 dereferenceable(16) %0, i8 noundef signext 63)
  %frombool = zext i1 %call to i8
  store i8 %frombool, ptr %IsNegative, align 1
  %1 = load ptr, ptr %MangledName.addr, align 8
  call void @llvm.memcpy.p0.p0.i64(ptr align 8 %agg.tmp, ptr align 8 %1, i64 16, i1 false)
  %2 = getelementptr inbounds { ptr, ptr }, ptr %agg.tmp, i32 0, i32 0
  %3 = load ptr, ptr %2, align 8
  %4 = getelementptr inbounds { ptr, ptr }, ptr %agg.tmp, i32 0, i32 1
  %5 = load ptr, ptr %4, align 8
  %call2 = call noundef zeroext i1 @_ZL15startsWithDigit10StringView(ptr %3, ptr %5)
  br i1 %call2, label %if.then, label %if.end

if.then:                                          ; preds = %entry
  %6 = load ptr, ptr %MangledName.addr, align 8
  %call3 = call noundef nonnull align 1 dereferenceable(1) ptr @_ZNK10StringViewixEm(ptr noundef nonnull align 8 dereferenceable(16) %6, i64 noundef 0)
  %7 = load i8, ptr %call3, align 1
  %conv = sext i8 %7 to i32
  %sub = sub nsw i32 %conv, 48
  %add = add nsw i32 %sub, 1
  %conv4 = sext i32 %add to i64
  store i64 %conv4, ptr %Ret, align 8
  %8 = load ptr, ptr %MangledName.addr, align 8
  %call5 = call { ptr, ptr } @_ZNK10StringView9dropFrontEm(ptr noundef nonnull align 8 dereferenceable(16) %8, i64 noundef 1)
  %9 = getelementptr inbounds { ptr, ptr }, ptr %ref.tmp, i32 0, i32 0
  %10 = extractvalue { ptr, ptr } %call5, 0
  store ptr %10, ptr %9, align 8
  %11 = getelementptr inbounds { ptr, ptr }, ptr %ref.tmp, i32 0, i32 1
  %12 = extractvalue { ptr, ptr } %call5, 1
  store ptr %12, ptr %11, align 8
  %13 = load ptr, ptr %MangledName.addr, align 8
  call void @llvm.memcpy.p0.p0.i64(ptr align 8 %13, ptr align 8 %ref.tmp, i64 16, i1 false)
  call void @_ZNSt4pairImbEC2IRmRbTnNSt9enable_ifIXaaclsr5_PCCPE22_MoveConstructiblePairIT_T0_EEclsr5_PCCPE30_ImplicitlyMoveConvertiblePairIS5_S6_EEEbE4typeELb1EEEOS5_OS6_(ptr noundef nonnull align 8 dereferenceable(9) %retval, ptr noundef nonnull align 8 dereferenceable(8) %Ret, ptr noundef nonnull align 1 dereferenceable(1) %IsNegative)
  br label %return

if.end:                                           ; preds = %entry
  store i64 0, ptr %Ret6, align 8
  store i64 0, ptr %i, align 8
  br label %for.cond

for.cond:                                         ; preds = %for.inc, %if.end
  %14 = load i64, ptr %i, align 8
  %15 = load ptr, ptr %MangledName.addr, align 8
  %call7 = call noundef i64 @_ZNK10StringView4sizeEv(ptr noundef nonnull align 8 dereferenceable(16) %15)
  %cmp = icmp ult i64 %14, %call7
  br i1 %cmp, label %for.body, label %for.end

for.body:                                         ; preds = %for.cond
  %16 = load ptr, ptr %MangledName.addr, align 8
  %17 = load i64, ptr %i, align 8
  %call8 = call noundef nonnull align 1 dereferenceable(1) ptr @_ZNK10StringViewixEm(ptr noundef nonnull align 8 dereferenceable(16) %16, i64 noundef %17)
  %18 = load i8, ptr %call8, align 1
  store i8 %18, ptr %C, align 1
  %19 = load i8, ptr %C, align 1
  %conv9 = sext i8 %19 to i32
  %cmp10 = icmp eq i32 %conv9, 64
  br i1 %cmp10, label %if.then11, label %if.end15

if.then11:                                        ; preds = %for.body
  %20 = load ptr, ptr %MangledName.addr, align 8
  %21 = load i64, ptr %i, align 8
  %add13 = add i64 %21, 1
  %call14 = call { ptr, ptr } @_ZNK10StringView9dropFrontEm(ptr noundef nonnull align 8 dereferenceable(16) %20, i64 noundef %add13)
  %22 = getelementptr inbounds { ptr, ptr }, ptr %ref.tmp12, i32 0, i32 0
  %23 = extractvalue { ptr, ptr } %call14, 0
  store ptr %23, ptr %22, align 8
  %24 = getelementptr inbounds { ptr, ptr }, ptr %ref.tmp12, i32 0, i32 1
  %25 = extractvalue { ptr, ptr } %call14, 1
  store ptr %25, ptr %24, align 8
  %26 = load ptr, ptr %MangledName.addr, align 8
  call void @llvm.memcpy.p0.p0.i64(ptr align 8 %26, ptr align 8 %ref.tmp12, i64 16, i1 false)
  call void @_ZNSt4pairImbEC2IRmRbTnNSt9enable_ifIXaaclsr5_PCCPE22_MoveConstructiblePairIT_T0_EEclsr5_PCCPE30_ImplicitlyMoveConvertiblePairIS5_S6_EEEbE4typeELb1EEEOS5_OS6_(ptr noundef nonnull align 8 dereferenceable(9) %retval, ptr noundef nonnull align 8 dereferenceable(8) %Ret6, ptr noundef nonnull align 1 dereferenceable(1) %IsNegative)
  br label %return

if.end15:                                         ; preds = %for.body
  %27 = load i8, ptr %C, align 1
  %conv16 = sext i8 %27 to i32
  %cmp17 = icmp sle i32 65, %conv16
  br i1 %cmp17, label %land.lhs.true, label %if.end25

land.lhs.true:                                    ; preds = %if.end15
  %28 = load i8, ptr %C, align 1
  %conv18 = sext i8 %28 to i32
  %cmp19 = icmp sle i32 %conv18, 80
  br i1 %cmp19, label %if.then20, label %if.end25

if.then20:                                        ; preds = %land.lhs.true
  %29 = load i64, ptr %Ret6, align 8
  %shl = shl i64 %29, 4
  %30 = load i8, ptr %C, align 1
  %conv21 = sext i8 %30 to i32
  %sub22 = sub nsw i32 %conv21, 65
  %conv23 = sext i32 %sub22 to i64
  %add24 = add i64 %shl, %conv23
  store i64 %add24, ptr %Ret6, align 8
  br label %for.inc

if.end25:                                         ; preds = %land.lhs.true, %if.end15
  br label %for.end

for.inc:                                          ; preds = %if.then20
  %31 = load i64, ptr %i, align 8
  %inc = add i64 %31, 1
  store i64 %inc, ptr %i, align 8
  br label %for.cond, !llvm.loop !13

for.end:                                          ; preds = %if.end25, %for.cond
  %Error = getelementptr inbounds %"class.(anonymous namespace)::Demangler", ptr %this1, i32 0, i32 1
  store i8 1, ptr %Error, align 8
  store i64 0, ptr %ref.tmp26, align 8
  store i8 0, ptr %ref.tmp27, align 1
  call void @_ZNSt4pairImbEC2IybTnNSt9enable_ifIXaaclsr5_PCCPE22_MoveConstructiblePairIT_T0_EEclsr5_PCCPE30_ImplicitlyMoveConvertiblePairIS3_S4_EEEbE4typeELb1EEEOS3_OS4_(ptr noundef nonnull align 8 dereferenceable(9) %retval, ptr noundef nonnull align 8 dereferenceable(8) %ref.tmp26, ptr noundef nonnull align 1 dereferenceable(1) %ref.tmp27)
  br label %return

return:                                           ; preds = %for.end, %if.then11, %if.then
  %32 = load { i64, i8 }, ptr %retval, align 8
  ret { i64, i8 } %32
}