; Function Attrs: mustprogress nofree norecurse nosync nounwind memory(read, argmem: readwrite, inaccessiblemem: none) uwtable
define internal fastcc { i64, i8 } @_ZN12_GLOBAL__N_19Demangler14demangleNumberER10StringView(ptr nocapture noundef nonnull writeonly align 8 dereferenceable(200) %this, ptr nocapture noundef nonnull align 8 dereferenceable(16) %MangledName) unnamed_addr #8 align 2 {
entry:
  %0 = load ptr, ptr %MangledName, align 8
  %Last.i.i.i = getelementptr inbounds i8, ptr %MangledName, i64 8
  %1 = load ptr, ptr %Last.i.i.i, align 8
  %cmp.i.i.i = icmp eq ptr %0, %1
  br i1 %cmp.i.i.i, label %_ZN10StringView12consumeFrontEc.exit, label %_ZNK10StringView10startsWithEc.exit.i

_ZNK10StringView10startsWithEc.exit.i:            ; preds = %entry
  %2 = load i8, ptr %0, align 1
  %cmp.i.i = icmp eq i8 %2, 63
  br i1 %cmp.i.i, label %if.end.i, label %_ZN10StringView12consumeFrontEc.exit

if.end.i:                                         ; preds = %_ZNK10StringView10startsWithEc.exit.i
  %add.ptr.i.i = getelementptr inbounds i8, ptr %0, i64 1
  store ptr %add.ptr.i.i, ptr %MangledName, align 8
  br label %_ZN10StringView12consumeFrontEc.exit

_ZN10StringView12consumeFrontEc.exit:             ; preds = %entry, %_ZNK10StringView10startsWithEc.exit.i, %if.end.i
  %agg.tmp.sroa.0.0.copyload = phi ptr [ %0, %_ZNK10StringView10startsWithEc.exit.i ], [ %add.ptr.i.i, %if.end.i ], [ %0, %entry ]
  %frombool = phi i8 [ 0, %_ZNK10StringView10startsWithEc.exit.i ], [ 1, %if.end.i ], [ 0, %entry ]
  %cmp.i.i15 = icmp eq ptr %agg.tmp.sroa.0.0.copyload, %1
  br i1 %cmp.i.i15, label %for.end, label %_ZL15startsWithDigit10StringView.exit

_ZL15startsWithDigit10StringView.exit:            ; preds = %_ZN10StringView12consumeFrontEc.exit
  %3 = load i8, ptr %agg.tmp.sroa.0.0.copyload, align 1
  %conv.i = sext i8 %3 to i32
  %isdigittmp.i = add nsw i32 %conv.i, -48
  %isdigit.i = icmp ult i32 %isdigittmp.i, 10
  br i1 %isdigit.i, label %if.then, label %for.body.preheader

if.then:                                          ; preds = %_ZL15startsWithDigit10StringView.exit
  %conv = sext i8 %3 to i64
  %add = add nsw i64 %conv, -47
  %add.ptr.i = getelementptr inbounds i8, ptr %agg.tmp.sroa.0.0.copyload, i64 1
  store ptr %add.ptr.i, ptr %MangledName, align 8
  br label %return

for.body.preheader:                               ; preds = %_ZL15startsWithDigit10StringView.exit
  %sub.ptr.lhs.cast.i = ptrtoint ptr %1 to i64
  %sub.ptr.rhs.cast.i = ptrtoint ptr %agg.tmp.sroa.0.0.copyload to i64
  %sub.ptr.sub.i = sub i64 %sub.ptr.lhs.cast.i, %sub.ptr.rhs.cast.i
  %umax = tail call i64 @llvm.umax.i64(i64 %sub.ptr.sub.i, i64 1)
  br label %for.body

for.body:                                         ; preds = %for.body.preheader, %if.then20
  %i.033 = phi i64 [ %inc, %if.then20 ], [ 0, %for.body.preheader ]
  %Ret6.032 = phi i64 [ %add24, %if.then20 ], [ 0, %for.body.preheader ]
  %add.ptr.i16 = getelementptr i8, ptr %agg.tmp.sroa.0.0.copyload, i64 %i.033
  %4 = load i8, ptr %add.ptr.i16, align 1
  %cmp10 = icmp eq i8 %4, 64
  br i1 %cmp10, label %if.then11, label %if.end15

if.then11:                                        ; preds = %for.body
  %add.ptr.i16.le = getelementptr i8, ptr %agg.tmp.sroa.0.0.copyload, i64 %i.033
  %add.ptr.i22 = getelementptr i8, ptr %add.ptr.i16.le, i64 1
  store ptr %add.ptr.i22, ptr %MangledName, align 8
  br label %return

if.end15:                                         ; preds = %for.body
  %5 = add i8 %4, -65
  %or.cond = icmp ult i8 %5, 16
  br i1 %or.cond, label %if.then20, label %for.end

if.then20:                                        ; preds = %if.end15
  %shl = shl i64 %Ret6.032, 4
  %sub22 = zext nneg i8 %5 to i64
  %add24 = or disjoint i64 %shl, %sub22
  %inc = add nuw i64 %i.033, 1
  %exitcond.not = icmp eq i64 %inc, %umax
  br i1 %exitcond.not, label %for.end, label %for.body, !llvm.loop !10

for.end:                                          ; preds = %if.then20, %if.end15, %_ZN10StringView12consumeFrontEc.exit
  %Error = getelementptr inbounds i8, ptr %this, i64 8
  store i8 1, ptr %Error, align 8
  br label %return

return:                                           ; preds = %for.end, %if.then11, %if.then
  %retval.sroa.0.0 = phi i64 [ %add, %if.then ], [ %Ret6.032, %if.then11 ], [ 0, %for.end ]
  %retval.sroa.4.0 = phi i8 [ %frombool, %if.then ], [ %frombool, %if.then11 ], [ 0, %for.end ]
  %.fca.0.insert = insertvalue { i64, i8 } poison, i64 %retval.sroa.0.0, 0
  %.fca.1.insert = insertvalue { i64, i8 } %.fca.0.insert, i8 %retval.sroa.4.0, 1
  ret { i64, i8 } %.fca.1.insert
}